target datalayout = "e-m:e-p270:32:32-p271:32:32-p272:64:64-i64:64-i128:128-f80:128-n8:16:32:64-S128"
target triple = "x86_64-pc-linux-gnu"

%"class.llvm::SmallVectorBase" = type { ptr, i32, i32 }
%"class.llvm::SlotIndex" = type { %"class.llvm::PointerIntPair.238" }
%"class.llvm::PointerIntPair.238" = type { %"struct.llvm::detail::PunnedPointer.239" }
%"struct.llvm::detail::PunnedPointer.239" = type { [8 x i8] }
%"class.llvm::LiveRange" = type { %"class.llvm::SmallVector.367", %"class.llvm::SmallVector.372", %"class.std::unique_ptr.377" }
%"class.llvm::SmallVector.367" = type { %"class.llvm::SmallVectorImpl.368", %"struct.llvm::SmallVectorStorage.371" }
%"class.llvm::SmallVectorImpl.368" = type { %"class.llvm::SmallVectorTemplateBase.369" }
%"class.llvm::SmallVectorTemplateBase.369" = type { %"class.llvm::SmallVectorTemplateCommon.370" }
%"class.llvm::SmallVectorTemplateCommon.370" = type { %"class.llvm::SmallVectorBase" }
%"struct.llvm::SmallVectorStorage.371" = type { [48 x i8] }
%"class.llvm::SmallVector.372" = type { %"class.llvm::SmallVectorImpl.373", %"struct.llvm::SmallVectorStorage.376" }
%"class.llvm::SmallVectorImpl.373" = type { %"class.llvm::SmallVectorTemplateBase.374" }
%"class.llvm::SmallVectorTemplateBase.374" = type { %"class.llvm::SmallVectorTemplateCommon.375" }
%"class.llvm::SmallVectorTemplateCommon.375" = type { %"class.llvm::SmallVectorBase" }
%"struct.llvm::SmallVectorStorage.376" = type { [16 x i8] }
%"class.std::unique_ptr.377" = type { %"struct.std::__uniq_ptr_data.378" }
%"struct.std::__uniq_ptr_data.378" = type { %"class.std::__uniq_ptr_impl.379" }
%"class.std::__uniq_ptr_impl.379" = type { %"class.std::tuple.380" }
%"class.std::tuple.380" = type { %"struct.std::_Tuple_impl.381" }
%"struct.std::_Tuple_impl.381" = type { %"struct.std::_Head_base.384" }
%"struct.std::_Head_base.384" = type { ptr }
%"struct.std::pair.487" = type { i8, i8 }
%"struct.llvm::LiveRange::Segment" = type { %"class.llvm::SlotIndex", %"class.llvm::SlotIndex", ptr }

; Function Attrs: mustprogress nounwind uwtable
define linkonce_odr hidden noundef i64 @_ZNK4llvm6detail13PunnedPointerIPNS_14IndexListEntryEE5asIntEv(ptr noundef nonnull align 8 dereferenceable(8) %0) #1 comdat align 2 {
  %2 = alloca ptr, align 8
  %3 = alloca i64, align 8
  store ptr %0, ptr %2, align 8
  %4 = load ptr, ptr %2, align 8
  store i64 0, ptr %3, align 8
  %5 = getelementptr inbounds nuw %"struct.llvm::detail::PunnedPointer.239", ptr %4, i32 0, i32 0
  %6 = getelementptr inbounds [8 x i8], ptr %5, i64 0, i64 0
  call void @llvm.memcpy.p0.p0.i64(ptr align 8 %3, ptr align 8 %6, i64 8, i1 false)
  %7 = load i64, ptr %3, align 8
  ret i64 %7
}

; Function Attrs: mustprogress nounwind uwtable
define linkonce_odr hidden noundef i64 @_ZN4llvm18PointerIntPairInfoIPNS_14IndexListEntryELj2ENS_21PointerLikeTypeTraitsIS2_EEE6getIntEl(i64 noundef %0) #1 comdat align 2 {
  %2 = alloca i64, align 8
  store i64 %0, ptr %2, align 8
  %3 = load i64, ptr %2, align 8
  %4 = ashr i64 %3, 1
  %5 = and i64 %4, 3
  ret i64 %5
}

; Function Attrs: mustprogress nounwind uwtable
define linkonce_odr hidden noundef i64 @_ZNK4llvm6detail13PunnedPointerIPNS_14IndexListEntryEEcvlEv(ptr noundef nonnull align 8 dereferenceable(8) %0) #1 comdat align 2 {
  %2 = alloca ptr, align 8
  store ptr %0, ptr %2, align 8
  %3 = load ptr, ptr %2, align 8
  %4 = call noundef i64 @_ZNK4llvm6detail13PunnedPointerIPNS_14IndexListEntryEE5asIntEv(ptr noundef nonnull align 8 dereferenceable(8) %3)
  ret i64 %4
}

; Function Attrs: mustprogress nounwind uwtable
define linkonce_odr hidden noundef i32 @_ZNK4llvm14PointerIntPairIPNS_14IndexListEntryELj2EjNS_21PointerLikeTypeTraitsIS2_EENS_18PointerIntPairInfoIS2_Lj2ES4_EEE6getIntEv(ptr noundef nonnull align 8 dereferenceable(8) %0) #1 comdat align 2 {
  %2 = alloca ptr, align 8
  store ptr %0, ptr %2, align 8
  %3 = load ptr, ptr %2, align 8
  %4 = getelementptr inbounds nuw %"class.llvm::PointerIntPair.238", ptr %3, i32 0, i32 0
  %5 = call noundef i64 @_ZNK4llvm6detail13PunnedPointerIPNS_14IndexListEntryEEcvlEv(ptr noundef nonnull align 8 dereferenceable(8) %4)
  %6 = call noundef i64 @_ZN4llvm18PointerIntPairInfoIPNS_14IndexListEntryELj2ENS_21PointerLikeTypeTraitsIS2_EEE6getIntEl(i64 noundef %5)
  %7 = trunc i64 %6 to i32
  ret i32 %7
}

; Function Attrs: mustprogress nounwind uwtable
define linkonce_odr hidden void @_ZNSt4pairIbbEC2IRbS2_TnNSt9enable_ifIXaaclsr5_PCCPE22_MoveConstructiblePairIT_T0_EEclsr5_PCCPE30_ImplicitlyMoveConvertiblePairIS4_S5_EEEbE4typeELb1EEEOS4_OS5_(ptr noundef nonnull align 1 dereferenceable(2) %0, ptr noundef nonnull align 1 dereferenceable(1) %1, ptr noundef nonnull align 1 dereferenceable(1) %2) unnamed_addr #1 comdat align 2 {
  %4 = alloca ptr, align 8
  %5 = alloca ptr, align 8
  %6 = alloca ptr, align 8
  store ptr %0, ptr %4, align 8
  store ptr %1, ptr %5, align 8
  store ptr %2, ptr %6, align 8
  %7 = load ptr, ptr %4, align 8
  %8 = getelementptr inbounds nuw %"struct.std::pair.487", ptr %7, i32 0, i32 0
  %9 = load ptr, ptr %5, align 8
  %10 = load i8, ptr %9, align 1
  %11 = trunc i8 %10 to i1
  %12 = zext i1 %11 to i8
  store i8 %12, ptr %8, align 1
  %13 = getelementptr inbounds nuw %"struct.std::pair.487", ptr %7, i32 0, i32 1
  %14 = load ptr, ptr %6, align 8
  %15 = load i8, ptr %14, align 1
  %16 = trunc i8 %15 to i1
  %17 = zext i1 %16 to i8
  store i8 %17, ptr %13, align 1
  ret void
}

; Function Attrs: mustprogress nounwind uwtable
define linkonce_odr hidden noundef i32 @_ZNK4llvm9SlotIndex7getSlotEv(ptr noundef nonnull align 8 dereferenceable(8) %0) #1 comdat align 2 {
  %2 = alloca ptr, align 8
  store ptr %0, ptr %2, align 8
  %3 = load ptr, ptr %2, align 8
  %4 = getelementptr inbounds nuw %"class.llvm::SlotIndex", ptr %3, i32 0, i32 0
  %5 = call noundef i32 @_ZNK4llvm14PointerIntPairIPNS_14IndexListEntryELj2EjNS_21PointerLikeTypeTraitsIS2_EENS_18PointerIntPairInfoIS2_Lj2ES4_EEE6getIntEv(ptr noundef nonnull align 8 dereferenceable(8) %4)
  ret i32 %5
}

; Function Attrs: mustprogress nounwind uwtable
define linkonce_odr i16 @_ZSt9make_pairIRbS0_ESt4pairINSt25__strip_reference_wrapperINSt5decayIT_E4typeEE6__typeENS2_INS3_IT0_E4typeEE6__typeEEOS4_OS9_(ptr noundef nonnull align 1 dereferenceable(1) %0, ptr noundef nonnull align 1 dereferenceable(1) %1) #1 comdat {
  %3 = alloca %"struct.std::pair.487", align 1
  %4 = alloca ptr, align 8
  %5 = alloca ptr, align 8
  store ptr %0, ptr %4, align 8
  store ptr %1, ptr %5, align 8
  %6 = load ptr, ptr %4, align 8
  %7 = load ptr, ptr %5, align 8
  call void @_ZNSt4pairIbbEC2IRbS2_TnNSt9enable_ifIXaaclsr5_PCCPE22_MoveConstructiblePairIT_T0_EEclsr5_PCCPE30_ImplicitlyMoveConvertiblePairIS4_S5_EEEbE4typeELb1EEEOS4_OS5_(ptr noundef nonnull align 1 dereferenceable(2) %3, ptr noundef nonnull align 1 dereferenceable(1) %6, ptr noundef nonnull align 1 dereferenceable(1) %7)
  %8 = load i16, ptr %3, align 1
  ret i16 %8
}

; Function Attrs: mustprogress nounwind uwtable
define linkonce_odr hidden noundef zeroext i1 @_ZNK4llvm9SlotIndex6isDeadEv(ptr noundef nonnull align 8 dereferenceable(8) %0) #1 comdat align 2 {
  %2 = alloca ptr, align 8
  store ptr %0, ptr %2, align 8
  %3 = load ptr, ptr %2, align 8
  %4 = call noundef i32 @_ZNK4llvm9SlotIndex7getSlotEv(ptr noundef nonnull align 8 dereferenceable(8) %3)
  %5 = icmp eq i32 %4, 3
  ret i1 %5
}

; Function Attrs: mustprogress nounwind uwtable
define linkonce_odr hidden void @_ZN4llvm9LiveRange7SegmentC2ENS_9SlotIndexES2_PNS_6VNInfoE(ptr noundef nonnull align 8 dereferenceable(24) %0, i64 %1, i64 %2, ptr noundef %3) unnamed_addr #1 comdat align 2 {
  %5 = alloca %"class.llvm::SlotIndex", align 8
  %6 = alloca %"class.llvm::SlotIndex", align 8
  %7 = alloca ptr, align 8
  %8 = alloca ptr, align 8
  %9 = getelementptr inbounds nuw %"class.llvm::SlotIndex", ptr %5, i32 0, i32 0
  %10 = getelementptr inbounds nuw %"class.llvm::PointerIntPair.238", ptr %9, i32 0, i32 0
  %11 = getelementptr inbounds nuw %"struct.llvm::detail::PunnedPointer.239", ptr %10, i32 0, i32 0
  store i64 %1, ptr %11, align 8
  %12 = getelementptr inbounds nuw %"class.llvm::SlotIndex", ptr %6, i32 0, i32 0
  %13 = getelementptr inbounds nuw %"class.llvm::PointerIntPair.238", ptr %12, i32 0, i32 0
  %14 = getelementptr inbounds nuw %"struct.llvm::detail::PunnedPointer.239", ptr %13, i32 0, i32 0
  store i64 %2, ptr %14, align 8
  store ptr %0, ptr %7, align 8
  store ptr %3, ptr %8, align 8
  %15 = load ptr, ptr %7, align 8
  %16 = getelementptr inbounds nuw %"struct.llvm::LiveRange::Segment", ptr %15, i32 0, i32 0
  call void @llvm.memcpy.p0.p0.i64(ptr align 8 %16, ptr align 8 %5, i64 8, i1 false)
  %17 = getelementptr inbounds nuw %"struct.llvm::LiveRange::Segment", ptr %15, i32 0, i32 1
  call void @llvm.memcpy.p0.p0.i64(ptr align 8 %17, ptr align 8 %6, i64 8, i1 false)
  %18 = getelementptr inbounds nuw %"struct.llvm::LiveRange::Segment", ptr %15, i32 0, i32 2
  %19 = load ptr, ptr %8, align 8
  store ptr %19, ptr %18, align 8
  ret void
}

; Function Attrs: mustprogress nounwind uwtable
define linkonce_odr hidden noundef ptr @_ZNK4llvm25SmallVectorTemplateCommonINS_9LiveRange7SegmentEvE3endEv(ptr noundef nonnull align 8 dereferenceable(16) %0) #1 comdat align 2 {
  %2 = alloca ptr, align 8
  store ptr %0, ptr %2, align 8
  %3 = load ptr, ptr %2, align 8
  %4 = call noundef ptr @_ZNK4llvm25SmallVectorTemplateCommonINS_9LiveRange7SegmentEvE5beginEv(ptr noundef nonnull align 8 dereferenceable(16) %3)
  %5 = call noundef i64 @_ZNK4llvm15SmallVectorBaseIjE4sizeEv(ptr noundef nonnull align 8 dereferenceable(16) %3)
  %6 = getelementptr inbounds %"struct.llvm::LiveRange::Segment", ptr %4, i64 %5
  ret ptr %6
}

; Function Attrs: mustprogress nounwind uwtable
define linkonce_odr hidden noundef ptr @_ZNK4llvm25SmallVectorTemplateCommonINS_9LiveRange7SegmentEvE5beginEv(ptr noundef nonnull align 8 dereferenceable(16) %0) #1 comdat align 2 {
  %2 = alloca ptr, align 8
  store ptr %0, ptr %2, align 8
  %3 = load ptr, ptr %2, align 8
  %4 = getelementptr inbounds nuw %"class.llvm::SmallVectorBase", ptr %3, i32 0, i32 0
  %5 = load ptr, ptr %4, align 8
  ret ptr %5
}

; Function Attrs: mustprogress nounwind uwtable
define internal i16 @_ZL20addSegmentsWithValNoRN4llvm9LiveRangeEPNS_6VNInfoERKS0_PKS2_(ptr noundef nonnull align 8 dereferenceable(104) %0, ptr noundef %1, ptr noundef nonnull align 8 dereferenceable(104) %2, ptr noundef %3) #1 {
  %5 = alloca %"struct.std::pair.487", align 1
  %6 = alloca ptr, align 8
  %7 = alloca ptr, align 8
  %8 = alloca ptr, align 8
  %9 = alloca ptr, align 8
  %10 = alloca i8, align 1
  %11 = alloca i8, align 1
  %12 = alloca ptr, align 8
  %13 = alloca ptr, align 8
  %14 = alloca ptr, align 8
  %15 = alloca ptr, align 8
  %16 = alloca %"struct.llvm::LiveRange::Segment", align 8
  %17 = alloca %"class.llvm::SlotIndex", align 8
  %18 = alloca %"class.llvm::SlotIndex", align 8
  %19 = alloca ptr, align 8
  %20 = alloca %"struct.llvm::LiveRange::Segment", align 8
  store ptr %0, ptr %6, align 8
  store ptr %1, ptr %7, align 8
  store ptr %2, ptr %8, align 8
  store ptr %3, ptr %9, align 8
  store i8 0, ptr %10, align 1
  store i8 0, ptr %11, align 1
  %21 = load ptr, ptr %8, align 8
  %22 = getelementptr inbounds nuw %"class.llvm::LiveRange", ptr %21, i32 0, i32 0
  store ptr %22, ptr %12, align 8
  %23 = load ptr, ptr %12, align 8
  %24 = call noundef ptr @_ZNK4llvm25SmallVectorTemplateCommonINS_9LiveRange7SegmentEvE5beginEv(ptr noundef nonnull align 8 dereferenceable(16) %23)
  store ptr %24, ptr %13, align 8
  %25 = load ptr, ptr %12, align 8
  %26 = call noundef ptr @_ZNK4llvm25SmallVectorTemplateCommonINS_9LiveRange7SegmentEvE3endEv(ptr noundef nonnull align 8 dereferenceable(16) %25)
  store ptr %26, ptr %14, align 8
  br label %27

27:                                               ; preds = %60, %4
  %28 = load ptr, ptr %13, align 8
  %29 = load ptr, ptr %14, align 8
  %30 = icmp ne ptr %28, %29
  br i1 %30, label %31, label %63

31:                                               ; preds = %27
  %32 = load ptr, ptr %13, align 8
  store ptr %32, ptr %15, align 8
  %33 = load ptr, ptr %15, align 8
  %34 = getelementptr inbounds nuw %"struct.llvm::LiveRange::Segment", ptr %33, i32 0, i32 2
  %35 = load ptr, ptr %34, align 8
  %36 = load ptr, ptr %9, align 8
  %37 = icmp ne ptr %35, %36
  br i1 %37, label %38, label %39

38:                                               ; preds = %31
  br label %60

39:                                               ; preds = %31
  %40 = load ptr, ptr %15, align 8
  %41 = getelementptr inbounds nuw %"struct.llvm::LiveRange::Segment", ptr %40, i32 0, i32 0
  call void @llvm.memcpy.p0.p0.i64(ptr align 8 %17, ptr align 8 %41, i64 8, i1 false)
  %42 = load ptr, ptr %15, align 8
  %43 = getelementptr inbounds nuw %"struct.llvm::LiveRange::Segment", ptr %42, i32 0, i32 1
  call void @llvm.memcpy.p0.p0.i64(ptr align 8 %18, ptr align 8 %43, i64 8, i1 false)
  %44 = load ptr, ptr %7, align 8
  %45 = getelementptr inbounds nuw %"class.llvm::SlotIndex", ptr %17, i32 0, i32 0
  %46 = getelementptr inbounds nuw %"class.llvm::PointerIntPair.238", ptr %45, i32 0, i32 0
  %47 = getelementptr inbounds nuw %"struct.llvm::detail::PunnedPointer.239", ptr %46, i32 0, i32 0
  %48 = load i64, ptr %47, align 8
  %49 = getelementptr inbounds nuw %"class.llvm::SlotIndex", ptr %18, i32 0, i32 0
  %50 = getelementptr inbounds nuw %"class.llvm::PointerIntPair.238", ptr %49, i32 0, i32 0
  %51 = getelementptr inbounds nuw %"struct.llvm::detail::PunnedPointer.239", ptr %50, i32 0, i32 0
  %52 = load i64, ptr %51, align 8
  call void @_ZN4llvm9LiveRange7SegmentC2ENS_9SlotIndexES2_PNS_6VNInfoE(ptr noundef nonnull align 8 dereferenceable(24) %16, i64 %48, i64 %52, ptr noundef %44)
  %53 = load ptr, ptr %6, align 8
  call void @llvm.memcpy.p0.p0.i64(ptr align 8 %20, ptr align 8 %16, i64 24, i1 false)
  %54 = call noundef ptr @_ZN4llvm9LiveRange10addSegmentENS0_7SegmentE(ptr noundef nonnull align 8 dereferenceable(104) %53, ptr noundef byval(%"struct.llvm::LiveRange::Segment") align 8 %20)
  store ptr %54, ptr %19, align 8
  %55 = load ptr, ptr %19, align 8
  %56 = getelementptr inbounds nuw %"struct.llvm::LiveRange::Segment", ptr %55, i32 0, i32 1
  %57 = call noundef zeroext i1 @_ZNK4llvm9SlotIndex6isDeadEv(ptr noundef nonnull align 8 dereferenceable(8) %56)
  br i1 %57, label %58, label %59

58:                                               ; preds = %39
  store i8 1, ptr %11, align 1
  br label %59

59:                                               ; preds = %58, %39
  store i8 1, ptr %10, align 1
  br label %60

60:                                               ; preds = %59, %38
  %61 = load ptr, ptr %13, align 8
  %62 = getelementptr inbounds %"struct.llvm::LiveRange::Segment", ptr %61, i32 1
  store ptr %62, ptr %13, align 8
  br label %27

63:                                               ; preds = %27
  %64 = call i16 @_ZSt9make_pairIRbS0_ESt4pairINSt25__strip_reference_wrapperINSt5decayIT_E4typeEE6__typeENS2_INS3_IT0_E4typeEE6__typeEEOS4_OS9_(ptr noundef nonnull align 1 dereferenceable(1) %10, ptr noundef nonnull align 1 dereferenceable(1) %11)
  store i16 %64, ptr %5, align 1
  %65 = load i16, ptr %5, align 1
  ret i16 %65
}