; Function Attrs: mustprogress nounwind uwtable
define internal fastcc range(i16 0, 512) i16 @_ZL20addSegmentsWithValNoRN4llvm9LiveRangeEPNS_6VNInfoERKS0_PKS2_(ptr noundef nonnull align 8 dereferenceable(104) %0, ptr noundef %1, ptr noundef nonnull align 8 dereferenceable(104) %2, ptr noundef readnone %3) unnamed_addr #0 {
  %5 = alloca %"struct.llvm::LiveRange::Segment", align 8
  %6 = load ptr, ptr %2, align 8
  %7 = tail call noundef i64 @_ZNK4llvm15SmallVectorBaseIjE4sizeEv(ptr noundef nonnull align 8 dereferenceable(16) %2) #20
  %8 = getelementptr inbounds %"struct.llvm::LiveRange::Segment", ptr %6, i64 %7
  %.not22 = icmp eq i64 %7, 0
  br i1 %.not22, label %._crit_edge, label %.lr.ph

.lr.ph:                                           ; preds = %4
  %.sroa.2.0..sroa_idx = getelementptr inbounds i8, ptr %5, i64 8
  %.sroa.3.0..sroa_idx = getelementptr inbounds i8, ptr %5, i64 16
  br label %9

9:                                                ; preds = %.lr.ph, %18
  %.025 = phi ptr [ %6, %.lr.ph ], [ %19, %18 ]
  %.01924 = phi i8 [ 0, %.lr.ph ], [ %.1, %18 ]
  %.02023 = phi i8 [ 0, %.lr.ph ], [ %.121, %18 ]
  %10 = getelementptr inbounds nuw i8, ptr %.025, i64 16
  %11 = load ptr, ptr %10, align 8
  %.not16 = icmp eq ptr %11, %3
  br i1 %.not16, label %12, label %18

12:                                               ; preds = %9
  %.sroa.01.0.copyload = load i64, ptr %.025, align 8
  %13 = getelementptr inbounds nuw i8, ptr %.025, i64 8
  %.sroa.0.0.copyload = load i64, ptr %13, align 8
  store i64 %.sroa.01.0.copyload, ptr %5, align 8
  store i64 %.sroa.0.0.copyload, ptr %.sroa.2.0..sroa_idx, align 8
  store ptr %1, ptr %.sroa.3.0..sroa_idx, align 8
  %14 = tail call noundef ptr @_ZN4llvm9LiveRange10addSegmentENS0_7SegmentE(ptr noundef nonnull align 8 dereferenceable(104) %0, ptr noundef nonnull byval(%"struct.llvm::LiveRange::Segment") align 8 %5) #20
  %15 = getelementptr inbounds nuw i8, ptr %14, i64 8
  %.0.copyload.i.i.i.i.i = load i64, ptr %15, align 8
  %16 = and i64 %.0.copyload.i.i.i.i.i, 6
  %17 = icmp eq i64 %16, 6
  %spec.select = select i1 %17, i8 1, i8 %.02023
  br label %18

18:                                               ; preds = %12, %9
  %.121 = phi i8 [ %.02023, %9 ], [ %spec.select, %12 ]
  %.1 = phi i8 [ %.01924, %9 ], [ 1, %12 ]
  %19 = getelementptr inbounds i8, ptr %.025, i64 24
  %.not = icmp eq ptr %19, %8
  br i1 %.not, label %._crit_edge.loopexit, label %9

._crit_edge.loopexit:                             ; preds = %18
  %20 = and i8 %.1, 1
  %21 = and i8 %.121, 1
  %22 = zext nneg i8 %21 to i16
  %23 = shl nuw nsw i16 %22, 8
  %24 = zext nneg i8 %20 to i16
  %25 = or disjoint i16 %23, %24
  br label %._crit_edge

._crit_edge:                                      ; preds = %._crit_edge.loopexit, %4
  %.sroa.0.0.insert.insert.i = phi i16 [ 0, %4 ], [ %25, %._crit_edge.loopexit ]
  ret i16 %.sroa.0.0.insert.insert.i
}